; Function Attrs: mustprogress nounwind uwtable
define hidden void @_ZN15G1CollectedHeap43start_concurrent_gc_for_metadata_allocationEN7GCCause5CauseE(ptr noundef nonnull align 8 dereferenceable(1488) %0, i32 noundef %1) local_unnamed_addr #0 align 2 {
  %3 = getelementptr inbounds i8, ptr %0, i64 80
  %4 = load i32, ptr %3, align 8
  tail call void @_ZN13CollectedHeap12set_gc_causeEN7GCCause5CauseE(ptr noundef nonnull align 8 dereferenceable(104) %0, i32 noundef %1) #23
  %5 = getelementptr inbounds i8, ptr %0, i64 1064
  %6 = load ptr, ptr %5, align 8
  %7 = tail call noundef zeroext i1 @_ZN8G1Policy39force_concurrent_start_if_outside_cycleEN7GCCause5CauseE(ptr noundef nonnull align 8 dereferenceable(552) %6, i32 noundef %1) #23
  br i1 %7, label %8, label %14

8:                                                ; preds = %2
  %9 = getelementptr inbounds i8, ptr %0, i64 56
  %10 = load i8, ptr %9, align 8
  %11 = trunc i8 %10 to i1
  br i1 %11, label %12, label %_ZN15G1CollectedHeap32do_collection_pause_at_safepointEv.exit

12:                                               ; preds = %8
  %13 = load ptr, ptr @g_assert_poison, align 8
  store i8 88, ptr %13, align 1
  tail call void (ptr, i32, ptr, ptr, ...) @_Z15report_vm_errorPKciS0_S0_z(ptr noundef nonnull @.str.29, i32 noundef 2400, ptr noundef nonnull @.str.80, ptr noundef nonnull @.str.81) #24
  unreachable

_ZN15G1CollectedHeap32do_collection_pause_at_safepointEv.exit: ; preds = %8
  tail call void @_ZN15G1CollectedHeap39do_collection_pause_at_safepoint_helperEv(ptr noundef nonnull align 8 dereferenceable(1488) %0)
  br label %14

14:                                               ; preds = %_ZN15G1CollectedHeap32do_collection_pause_at_safepointEv.exit, %2
  tail call void @_ZN13CollectedHeap12set_gc_causeEN7GCCause5CauseE(ptr noundef nonnull align 8 dereferenceable(104) %0, i32 noundef %4) #23
  ret void
}